target datalayout = "e-m:e-p270:32:32-p271:32:32-p272:64:64-i64:64-i128:128-f80:128-n8:16:32:64-S128"
target triple = "x86_64-pc-linux-gnu"

%struct.expert_field = type { i32, i32 }

@ei_gsm_a_bssmap_extraneous_data = internal global %struct.expert_field zeroinitializer, align 4
@.str.137 = private unnamed_addr constant [1 x i8] zeroinitializer, align 1
@ei_gsm_a_bssmap_missing_mandatory_element = internal global %struct.expert_field zeroinitializer, align 4
@.str.139 = private unnamed_addr constant [71 x i8] c"Missing Mandatory element (0x%02x) %s%s, rest of dissection is suspect\00", align 1

; Function Attrs: null_pointer_is_valid sspstrong uwtable
define internal void @bssmap_ciph_mode_cmd(ptr noundef %0, ptr noundef %1, ptr noundef %2, i32 noundef %3, i32 noundef %4) #1 {
  %6 = alloca ptr, align 8
  %7 = alloca ptr, align 8
  %8 = alloca ptr, align 8
  %9 = alloca i32, align 4
  %10 = alloca i32, align 4
  %11 = alloca i32, align 4
  %12 = alloca i32, align 4
  %13 = alloca i32, align 4
  %14 = alloca i32, align 4
  store ptr %0, ptr %6, align 8
  store ptr %1, ptr %7, align 8
  store ptr %2, ptr %8, align 8
  store i32 %3, ptr %9, align 4
  store i32 %4, ptr %10, align 4
  call void @llvm.lifetime.start.p0(i64 4, ptr %11) #5
  call void @llvm.lifetime.start.p0(i64 4, ptr %12) #5
  call void @llvm.lifetime.start.p0(i64 4, ptr %13) #5
  %15 = load i32, ptr %9, align 4
  store i32 %15, ptr %11, align 4
  %16 = load i32, ptr %10, align 4
  store i32 %16, ptr %13, align 4
  %17 = load i32, ptr %13, align 4
  %18 = icmp sle i32 %17, 0
  br i1 %18, label %19, label %20

19:                                               ; preds = %5
  store i32 1, ptr %14, align 4
  br label %116

20:                                               ; preds = %5
  %21 = load ptr, ptr %6, align 8
  %22 = load ptr, ptr %7, align 8
  %23 = load ptr, ptr %8, align 8
  %24 = load i32, ptr %11, align 4
  %25 = load i32, ptr %13, align 4
  %26 = call zeroext i16 @elem_tlv(ptr noundef %21, ptr noundef %22, ptr noundef %23, i8 noundef zeroext 7, i32 noundef 0, i32 noundef 7, i32 noundef %24, i32 noundef %25, ptr noundef null)
  %27 = zext i16 %26 to i32
  store i32 %27, ptr %12, align 4
  %28 = icmp ugt i32 %27, 0
  br i1 %28, label %29, label %36

29:                                               ; preds = %20
  %30 = load i32, ptr %12, align 4
  %31 = load i32, ptr %11, align 4
  %32 = add i32 %31, %30
  store i32 %32, ptr %11, align 4
  %33 = load i32, ptr %12, align 4
  %34 = load i32, ptr %13, align 4
  %35 = sub i32 %34, %33
  store i32 %35, ptr %13, align 4
  br label %36

36:                                               ; preds = %29, %20
  %37 = load i32, ptr %13, align 4
  %38 = icmp sgt i32 %37, 0
  br i1 %38, label %39, label %55

39:                                               ; preds = %36
  %40 = load ptr, ptr %6, align 8
  %41 = load ptr, ptr %7, align 8
  %42 = load ptr, ptr %8, align 8
  %43 = load i32, ptr %11, align 4
  %44 = load i32, ptr %13, align 4
  %45 = call zeroext i16 @elem_tlv(ptr noundef %40, ptr noundef %41, ptr noundef %42, i8 noundef zeroext 10, i32 noundef 0, i32 noundef 10, i32 noundef %43, i32 noundef %44, ptr noundef null)
  %46 = zext i16 %45 to i32
  store i32 %46, ptr %12, align 4
  %47 = icmp ugt i32 %46, 0
  br i1 %47, label %48, label %55

48:                                               ; preds = %39
  %49 = load i32, ptr %12, align 4
  %50 = load i32, ptr %11, align 4
  %51 = add i32 %50, %49
  store i32 %51, ptr %11, align 4
  %52 = load i32, ptr %12, align 4
  %53 = load i32, ptr %13, align 4
  %54 = sub i32 %53, %52
  store i32 %54, ptr %13, align 4
  br label %62

55:                                               ; preds = %39, %36
  %56 = load ptr, ptr %7, align 8
  %57 = load ptr, ptr %8, align 8
  %58 = load ptr, ptr %6, align 8
  %59 = load i32, ptr %11, align 4
  %60 = call ptr @get_gsm_a_msg_string(i32 noundef 0, i32 noundef 10)
  %61 = call ptr (ptr, ptr, ptr, ptr, i32, i32, ptr, ...) @proto_tree_add_expert_format(ptr noundef %56, ptr noundef %57, ptr noundef @ei_gsm_a_bssmap_missing_mandatory_element, ptr noundef %58, i32 noundef %59, i32 noundef 0, ptr noundef @.str.139, i32 noundef 10, ptr noundef %60, ptr noundef @.str.137)
  br label %62

62:                                               ; preds = %55, %48
  %63 = load i32, ptr %13, align 4
  %64 = icmp sle i32 %63, 0
  br i1 %64, label %65, label %66

65:                                               ; preds = %62
  store i32 1, ptr %14, align 4
  br label %116

66:                                               ; preds = %62
  %67 = load ptr, ptr %6, align 8
  %68 = load ptr, ptr %7, align 8
  %69 = load ptr, ptr %8, align 8
  %70 = load i32, ptr %11, align 4
  %71 = call zeroext i16 @elem_tv(ptr noundef %67, ptr noundef %68, ptr noundef %69, i8 noundef zeroext 35, i32 noundef 0, i32 noundef 35, i32 noundef %70, ptr noundef null)
  %72 = zext i16 %71 to i32
  store i32 %72, ptr %12, align 4
  %73 = icmp ugt i32 %72, 0
  br i1 %73, label %74, label %81

74:                                               ; preds = %66
  %75 = load i32, ptr %12, align 4
  %76 = load i32, ptr %11, align 4
  %77 = add i32 %76, %75
  store i32 %77, ptr %11, align 4
  %78 = load i32, ptr %12, align 4
  %79 = load i32, ptr %13, align 4
  %80 = sub i32 %79, %78
  store i32 %80, ptr %13, align 4
  br label %81

81:                                               ; preds = %74, %66
  %82 = load i32, ptr %13, align 4
  %83 = icmp sle i32 %82, 0
  br i1 %83, label %84, label %85

84:                                               ; preds = %81
  store i32 1, ptr %14, align 4
  br label %116

85:                                               ; preds = %81
  %86 = load ptr, ptr %6, align 8
  %87 = load ptr, ptr %7, align 8
  %88 = load ptr, ptr %8, align 8
  %89 = load i32, ptr %11, align 4
  %90 = call zeroext i16 @elem_tv(ptr noundef %86, ptr noundef %87, ptr noundef %88, i8 noundef zeroext -125, i32 noundef 0, i32 noundef 131, i32 noundef %89, ptr noundef null)
  %91 = zext i16 %90 to i32
  store i32 %91, ptr %12, align 4
  %92 = icmp ugt i32 %91, 0
  br i1 %92, label %93, label %100

93:                                               ; preds = %85
  %94 = load i32, ptr %12, align 4
  %95 = load i32, ptr %11, align 4
  %96 = add i32 %95, %94
  store i32 %96, ptr %11, align 4
  %97 = load i32, ptr %12, align 4
  %98 = load i32, ptr %13, align 4
  %99 = sub i32 %98, %97
  store i32 %99, ptr %13, align 4
  br label %100

100:                                              ; preds = %93, %85
  %101 = load i32, ptr %13, align 4
  %102 = icmp ugt i32 %101, 0
  br i1 %102, label %103, label %115

103:                                              ; preds = %100
  %104 = load ptr, ptr %7, align 8
  %105 = load ptr, ptr %8, align 8
  %106 = load ptr, ptr %6, align 8
  %107 = load i32, ptr %11, align 4
  %108 = load i32, ptr %13, align 4
  %109 = sub i32 %108, 0
  %110 = call ptr @proto_tree_add_expert(ptr noundef %104, ptr noundef %105, ptr noundef @ei_gsm_a_bssmap_extraneous_data, ptr noundef %106, i32 noundef %107, i32 noundef %109)
  %111 = load i32, ptr %13, align 4
  %112 = sub i32 %111, 0
  %113 = load i32, ptr %11, align 4
  %114 = add i32 %113, %112
  store i32 %114, ptr %11, align 4
  br label %115

115:                                              ; preds = %103, %100
  store i32 0, ptr %14, align 4
  br label %116

116:                                              ; preds = %115, %84, %65, %19
  call void @llvm.lifetime.end.p0(i64 4, ptr %13) #5
  call void @llvm.lifetime.end.p0(i64 4, ptr %12) #5
  call void @llvm.lifetime.end.p0(i64 4, ptr %11) #5
  %117 = load i32, ptr %14, align 4
  switch i32 %117, label %119 [
    i32 0, label %118
    i32 1, label %118
  ]

118:                                              ; preds = %116, %116
  ret void

119:                                              ; preds = %116
  unreachable
}