; Function Attrs: null_pointer_is_valid sspstrong uwtable
define internal void @bssmap_ciph_mode_cmd(ptr noundef %0, ptr noundef %1, ptr noundef %2, i32 noundef %3, i32 noundef %4) #1 {
  %6 = icmp slt i32 %4, 1
  br i1 %6, label %37, label %7

7:                                                ; preds = %5
  %8 = tail call zeroext i16 @elem_tlv(ptr noundef %0, ptr noundef %1, ptr noundef %2, i8 noundef zeroext 7, i32 noundef 0, i32 noundef 7, i32 noundef %3, i32 noundef %4, ptr noundef null)
  %9 = zext i16 %8 to i32
  %10 = add i32 %3, %9
  %11 = sub nsw i32 %4, %9
  %12 = icmp sgt i32 %11, 0
  br i1 %12, label %13, label %19

13:                                               ; preds = %7
  %14 = tail call zeroext i16 @elem_tlv(ptr noundef %0, ptr noundef %1, ptr noundef %2, i8 noundef zeroext 10, i32 noundef 0, i32 noundef 10, i32 noundef %10, i32 noundef %11, ptr noundef null)
  %.not60 = icmp eq i16 %14, 0
  br i1 %.not60, label %19, label %15

15:                                               ; preds = %13
  %16 = zext i16 %14 to i32
  %17 = add i32 %10, %16
  %18 = sub nsw i32 %11, %16
  br label %22

19:                                               ; preds = %13, %7
  %20 = tail call ptr @get_gsm_a_msg_string(i32 noundef 0, i32 noundef 10)
  %21 = tail call ptr (ptr, ptr, ptr, ptr, i32, i32, ptr, ...) @proto_tree_add_expert_format(ptr noundef %1, ptr noundef %2, ptr noundef nonnull @ei_gsm_a_bssmap_missing_mandatory_element, ptr noundef %0, i32 noundef %10, i32 noundef 0, ptr noundef nonnull @.str.139, i32 noundef 10, ptr noundef %20, ptr noundef nonnull @.str.137)
  br label %22

22:                                               ; preds = %19, %15
  %.152 = phi i32 [ %17, %15 ], [ %10, %19 ]
  %.1 = phi i32 [ %18, %15 ], [ %11, %19 ]
  %23 = icmp slt i32 %.1, 1
  br i1 %23, label %37, label %24

24:                                               ; preds = %22
  %25 = tail call zeroext i16 @elem_tv(ptr noundef %0, ptr noundef %1, ptr noundef %2, i8 noundef zeroext 35, i32 noundef 0, i32 noundef 35, i32 noundef %.152, ptr noundef null)
  %26 = zext i16 %25 to i32
  %27 = sub nsw i32 %.1, %26
  %28 = icmp slt i32 %27, 1
  br i1 %28, label %37, label %29

29:                                               ; preds = %24
  %30 = add i32 %.152, %26
  %31 = tail call zeroext i16 @elem_tv(ptr noundef %0, ptr noundef %1, ptr noundef %2, i8 noundef zeroext -125, i32 noundef 0, i32 noundef 131, i32 noundef %30, ptr noundef null)
  %32 = zext i16 %31 to i32
  %.not63 = icmp eq i32 %27, %32
  br i1 %.not63, label %37, label %33

33:                                               ; preds = %29
  %34 = sub nsw i32 %27, %32
  %35 = add i32 %30, %32
  %36 = tail call ptr @proto_tree_add_expert(ptr noundef %1, ptr noundef %2, ptr noundef nonnull @ei_gsm_a_bssmap_extraneous_data, ptr noundef %0, i32 noundef %35, i32 noundef %34)
  br label %37

37:                                               ; preds = %29, %33, %24, %22, %5
  ret void
}